(iCrypto.PublicKey.RSA
_RSAobj
p0
(dp2
S'e'
p3
L65537L
sS'd'
p4
L55794890498715034045165181132779377554347960271041996084982854795600166231303224882573404331876287607902207576613606814904970238015189910253974592156195000125429663887586219504336976984614601092865514161172748253426890830725778876039900131451972553663412106015611504196005233114998210121198892030592617787393L
sS'n'
p5
L110954901645050588245478531250727092692659979132275740302874176318098315763470064605207343115007168981644828800477180174427328392062189014088928657790403945265195752197996908697778980435707162808118066623167222368829427036161290665766724699987790297423782421307956391136476818778080959924489874416522323842553L
sS'q'
p6
L11495790422695652202719911806234436551651915470332022242865176465934458611705188696194179163603878412395095846553521816791811203562592851827516723248760193L
sS'p'
p7
L9651785354924096797625648080238390191450439542474517403272167400221338697585440665509238414129841066130352626552310205755736824062682013948495595033574521L
sS'u'
p8
L7361645012587523956193601546536731113584760012725366749554015284275798797733486906831745439328026263264508015844895114874071989318046155035344951665228338L
sb.