(iCrypto.PublicKey.RSA
_RSAobj
p0
(dp2
S'e'
p3
L65537L
sS'd'
p4
L6047646130058472729233804420605885469295677216158819894971545292574931972243936670907297852744058971738195361760432522361155404597724828745031896104287488370239318533292140922665066456549029526376839534113707133526363864706016569041377897644785024832198093303212903693191888958342874631281622255749310450153L
sS'n'
p5
L161971632376641653966406146429606831222407355012423612364834558168975609589272937311504527738164034667268536748546573852874148651868039273176606201465749565840398595153198229232468685771443008169871524542497491109895964520403817790682015181234466228828387287277885309864838465621315280293123417043591387597927L
sS'q'
p6
L12905948460878853293618663963447613210300844893357907853047774289428053049034460399210570529782411820720370595623076455255094118655172947281698512495107331L
sS'p'
p7
L12550153355068637113934728114084003991546934709424389382888473408397933846857870662444735748390663494870620953736914776007150442650984375694897574781754317L
sS'u'
p8
L2662543235540745476506547207338981444703136504254723750657790373108902404877477821613378879060418234577214032837491037361812301598884171482522319625596722L
sb.